target datalayout = "e-m:e-p270:32:32-p271:32:32-p272:64:64-i64:64-i128:128-f80:128-n8:16:32:64-S128"
target triple = "x86_64-pc-linux-gnu"

%class.KRegister = type { i32 }

@.str = private unnamed_addr constant [46 x i8] c"src/hotspot/cpu/x86/c2_MacroAssembler_x86.cpp\00", align 1
@g_assert_poison = external global ptr, align 8
@.str.5 = private unnamed_addr constant [29 x i8] c"Unsupported masked operation\00", align 1
@.str.6 = private unnamed_addr constant [17 x i8] c"Unsupported type\00", align 1

; Function Attrs: mustprogress nounwind uwtable
define hidden void @_ZN17C2_MacroAssembler9masked_opEii9KRegisterS0_S0_(ptr noundef nonnull align 8 dereferenceable(40) %0, i32 noundef %1, i32 noundef %2, i32 %3, i32 %4, i32 %5) #1 align 2 {
  %7 = alloca %class.KRegister, align 4
  %8 = alloca %class.KRegister, align 4
  %9 = alloca %class.KRegister, align 4
  %10 = alloca ptr, align 8
  %11 = alloca i32, align 4
  %12 = alloca i32, align 4
  %13 = alloca i8, align 1
  %14 = alloca %class.KRegister, align 4
  %15 = alloca %class.KRegister, align 4
  %16 = alloca %class.KRegister, align 4
  %17 = alloca %class.KRegister, align 4
  %18 = alloca %class.KRegister, align 4
  %19 = alloca %class.KRegister, align 4
  %20 = alloca %class.KRegister, align 4
  %21 = alloca %class.KRegister, align 4
  %22 = alloca %class.KRegister, align 4
  %23 = getelementptr inbounds %class.KRegister, ptr %7, i32 0, i32 0
  store i32 %3, ptr %23, align 4
  %24 = getelementptr inbounds %class.KRegister, ptr %8, i32 0, i32 0
  store i32 %4, ptr %24, align 4
  %25 = getelementptr inbounds %class.KRegister, ptr %9, i32 0, i32 0
  store i32 %5, ptr %25, align 4
  store ptr %0, ptr %10, align 8
  store i32 %1, ptr %11, align 4
  store i32 %2, ptr %12, align 4
  %26 = load ptr, ptr %10, align 8
  store i8 99, ptr %13, align 1
  %27 = load i32, ptr %12, align 4
  switch i32 %27, label %32 [
    i32 2, label %28
    i32 4, label %28
    i32 8, label %28
    i32 16, label %29
    i32 32, label %30
    i32 64, label %31
  ]

28:                                               ; preds = %6, %6, %6
  store i8 8, ptr %13, align 1
  br label %36

29:                                               ; preds = %6
  store i8 9, ptr %13, align 1
  br label %36

30:                                               ; preds = %6
  store i8 10, ptr %13, align 1
  br label %36

31:                                               ; preds = %6
  store i8 11, ptr %13, align 1
  br label %36

32:                                               ; preds = %6
  br label %33

33:                                               ; preds = %32
  %34 = load ptr, ptr @g_assert_poison, align 8
  store i8 88, ptr %34, align 1
  call void (i32, ptr, i32, ptr, ...) @_Z12report_fatal11VMErrorTypePKciS1_z(i32 noundef -536870912, ptr noundef @.str, i32 noundef 4653, ptr noundef @.str.6) #8
  unreachable

35:                                               ; No predecessors!
  br label %36

36:                                               ; preds = %35, %31, %30, %29, %28
  %37 = load i32, ptr %11, align 4
  switch i32 %37, label %62 [
    i32 497, label %38
    i32 498, label %46
    i32 499, label %54
  ]

38:                                               ; preds = %36
  %39 = load i8, ptr %13, align 1
  call void @llvm.memcpy.p0.p0.i64(ptr align 4 %14, ptr align 4 %7, i64 4, i1 false)
  call void @llvm.memcpy.p0.p0.i64(ptr align 4 %15, ptr align 4 %8, i64 4, i1 false)
  call void @llvm.memcpy.p0.p0.i64(ptr align 4 %16, ptr align 4 %9, i64 4, i1 false)
  %40 = getelementptr inbounds %class.KRegister, ptr %14, i32 0, i32 0
  %41 = load i32, ptr %40, align 4
  %42 = getelementptr inbounds %class.KRegister, ptr %15, i32 0, i32 0
  %43 = load i32, ptr %42, align 4
  %44 = getelementptr inbounds %class.KRegister, ptr %16, i32 0, i32 0
  %45 = load i32, ptr %44, align 4
  call void @_ZN14MacroAssembler4kandE9BasicType9KRegisterS1_S1_(ptr noundef nonnull align 8 dereferenceable(40) %26, i8 noundef zeroext %39, i32 %41, i32 %43, i32 %45)
  br label %66

46:                                               ; preds = %36
  %47 = load i8, ptr %13, align 1
  call void @llvm.memcpy.p0.p0.i64(ptr align 4 %17, ptr align 4 %7, i64 4, i1 false)
  call void @llvm.memcpy.p0.p0.i64(ptr align 4 %18, ptr align 4 %8, i64 4, i1 false)
  call void @llvm.memcpy.p0.p0.i64(ptr align 4 %19, ptr align 4 %9, i64 4, i1 false)
  %48 = getelementptr inbounds %class.KRegister, ptr %17, i32 0, i32 0
  %49 = load i32, ptr %48, align 4
  %50 = getelementptr inbounds %class.KRegister, ptr %18, i32 0, i32 0
  %51 = load i32, ptr %50, align 4
  %52 = getelementptr inbounds %class.KRegister, ptr %19, i32 0, i32 0
  %53 = load i32, ptr %52, align 4
  call void @_ZN14MacroAssembler3korE9BasicType9KRegisterS1_S1_(ptr noundef nonnull align 8 dereferenceable(40) %26, i8 noundef zeroext %47, i32 %49, i32 %51, i32 %53)
  br label %66

54:                                               ; preds = %36
  %55 = load i8, ptr %13, align 1
  call void @llvm.memcpy.p0.p0.i64(ptr align 4 %20, ptr align 4 %7, i64 4, i1 false)
  call void @llvm.memcpy.p0.p0.i64(ptr align 4 %21, ptr align 4 %8, i64 4, i1 false)
  call void @llvm.memcpy.p0.p0.i64(ptr align 4 %22, ptr align 4 %9, i64 4, i1 false)
  %56 = getelementptr inbounds %class.KRegister, ptr %20, i32 0, i32 0
  %57 = load i32, ptr %56, align 4
  %58 = getelementptr inbounds %class.KRegister, ptr %21, i32 0, i32 0
  %59 = load i32, ptr %58, align 4
  %60 = getelementptr inbounds %class.KRegister, ptr %22, i32 0, i32 0
  %61 = load i32, ptr %60, align 4
  call void @_ZN14MacroAssembler4kxorE9BasicType9KRegisterS1_S1_(ptr noundef nonnull align 8 dereferenceable(40) %26, i8 noundef zeroext %55, i32 %57, i32 %59, i32 %61)
  br label %66

62:                                               ; preds = %36
  br label %63

63:                                               ; preds = %62
  %64 = load ptr, ptr @g_assert_poison, align 8
  store i8 88, ptr %64, align 1
  call void (i32, ptr, i32, ptr, ...) @_Z12report_fatal11VMErrorTypePKciS1_z(i32 noundef -536870912, ptr noundef @.str, i32 noundef 4664, ptr noundef @.str.5) #8
  unreachable

65:                                               ; No predecessors!
  br label %66

66:                                               ; preds = %65, %54, %46, %38
  ret void
}