; Function Attrs: mustprogress nounwind uwtable
define hidden void @_ZN17C2_MacroAssembler9masked_opEii9KRegisterS0_S0_(ptr noundef nonnull align 8 dereferenceable(40) %0, i32 noundef %1, i32 noundef %2, i32 %3, i32 %4, i32 %5) local_unnamed_addr #0 align 2 {
  switch i32 %2, label %10 [
    i32 2, label %12
    i32 4, label %12
    i32 8, label %12
    i32 16, label %7
    i32 32, label %8
    i32 64, label %9
  ]

7:                                                ; preds = %6
  br label %12

8:                                                ; preds = %6
  br label %12

9:                                                ; preds = %6
  br label %12

10:                                               ; preds = %6
  %11 = load ptr, ptr @g_assert_poison, align 8
  store i8 88, ptr %11, align 1
  tail call void (i32, ptr, i32, ptr, ...) @_Z12report_fatal11VMErrorTypePKciS1_z(i32 noundef -536870912, ptr noundef nonnull @.str, i32 noundef 4653, ptr noundef nonnull @.str.6) #12
  unreachable

12:                                               ; preds = %6, %6, %6, %9, %8, %7
  %.0 = phi i8 [ 11, %9 ], [ 10, %8 ], [ 9, %7 ], [ 8, %6 ], [ 8, %6 ], [ 8, %6 ]
  switch i32 %1, label %16 [
    i32 497, label %13
    i32 498, label %14
    i32 499, label %15
  ]

13:                                               ; preds = %12
  tail call void @_ZN14MacroAssembler4kandE9BasicType9KRegisterS1_S1_(ptr noundef nonnull align 8 dereferenceable(40) %0, i8 noundef zeroext %.0, i32 %3, i32 %4, i32 %5) #11
  br label %18

14:                                               ; preds = %12
  tail call void @_ZN14MacroAssembler3korE9BasicType9KRegisterS1_S1_(ptr noundef nonnull align 8 dereferenceable(40) %0, i8 noundef zeroext %.0, i32 %3, i32 %4, i32 %5) #11
  br label %18

15:                                               ; preds = %12
  tail call void @_ZN14MacroAssembler4kxorE9BasicType9KRegisterS1_S1_(ptr noundef nonnull align 8 dereferenceable(40) %0, i8 noundef zeroext %.0, i32 %3, i32 %4, i32 %5) #11
  br label %18

16:                                               ; preds = %12
  %17 = load ptr, ptr @g_assert_poison, align 8
  store i8 88, ptr %17, align 1
  tail call void (i32, ptr, i32, ptr, ...) @_Z12report_fatal11VMErrorTypePKciS1_z(i32 noundef -536870912, ptr noundef nonnull @.str, i32 noundef 4664, ptr noundef nonnull @.str.5) #12
  unreachable

18:                                               ; preds = %15, %14, %13
  ret void
}